Certificate:
    Data:
        Version: 3 (0x2)
        Serial Number: 2 (0x2)
    Signature Algorithm: sha256WithRSAEncryption
        Issuer: C=US, ST=CA, L=SanFrancisco, O=Fort-Funston, OU=MyOrganizationalUnit, CN=Fort-Funston CA/name=server/emailAddress=me@myhost.mydomain
        Validity
            Not Before: Mar 19 09:45:55 2016 GMT
            Not After : Mar 17 09:45:55 2026 GMT
        Subject: C=US, ST=CA, L=SanFrancisco, O=Fort-Funston, OU=MyOrganizationalUnit, CN=kin/name=kin/emailAddress=me@myhost.mydomain
        Subject Public Key Info:
            Public Key Algorithm: rsaEncryption
                Public-Key: (2048 bit)
                Modulus:
                    00:c3:35:d9:37:21:3f:2c:3c:4c:45:eb:53:12:d0:
                    8b:ee:3b:7a:40:09:15:10:90:4a:aa:bc:34:f2:13:
                    d7:16:ff:2a:ac:74:34:3f:a8:13:97:15:2b:91:87:
                    a2:17:1f:7b:ac:f1:d2:05:9e:6f:99:ae:a8:b1:77:
                    d9:df:1c:ae:7b:f4:2e:e8:5c:71:bc:34:3c:3b:36:
                    85:2c:fc:ea:b9:e7:a6:a5:38:70:97:f7:e7:ec:68:
                    8d:dc:d6:c4:59:6f:05:c4:37:a2:ec:a1:ed:fa:87:
                    2e:71:ae:70:db:f3:9e:4f:ca:b5:25:18:7c:77:e6:
                    9b:39:1d:88:9c:29:a9:60:a0:82:66:73:d6:75:1e:
                    1a:64:ce:af:6d:b6:0b:00:3c:17:12:b4:93:47:ef:
                    57:2a:29:2a:d5:d4:bd:1e:4b:cc:a6:e8:e3:ce:89:
                    7a:5d:bd:68:d5:b3:dc:91:09:9c:75:49:3e:60:80:
                    6d:d2:a3:99:ad:fb:56:a6:cd:42:a8:9e:95:ba:58:
                    05:8d:b2:f0:55:fc:e2:c9:53:17:2a:a0:67:c4:a7:
                    83:e0:d3:57:50:e1:55:bf:16:da:65:93:c0:08:d5:
                    c7:de:88:e2:07:cf:8f:80:ac:46:c7:e3:25:e0:49:
                    f4:13:c3:fe:b7:5f:99:b5:f2:a2:48:1b:f5:6b:83:
                    e8:73
                Exponent: 65537 (0x10001)
        X509v3 extensions:
            X509v3 Basic Constraints: 
                CA:FALSE
            Netscape Comment: 
                Easy-RSA Generated Certificate
            X509v3 Subject Key Identifier: 
                F6:88:35:80:93:48:4E:B2:C0:47:52:A4:EF:50:3C:EA:4B:EB:3F:E7
            X509v3 Authority Key Identifier: 
                keyid:4B:E6:E2:37:94:B8:F3:53:A7:B6:D5:AA:0D:C8:5B:F3:4B:E3:ED:4A
                DirName:/C=US/ST=CA/L=SanFrancisco/O=Fort-Funston/OU=MyOrganizationalUnit/CN=Fort-Funston CA/name=server/emailAddress=me@myhost.mydomain
                serial:89:F0:65:0F:EB:95:C1:CA

            X509v3 Extended Key Usage: 
                TLS Web Client Authentication
            X509v3 Key Usage: 
                Digital Signature
    Signature Algorithm: sha256WithRSAEncryption
         22:2c:20:82:95:99:7a:2c:f3:c3:8f:54:5a:e4:33:ec:55:15:
         f0:fd:92:b3:b8:39:59:e7:24:ed:3d:d0:3b:d8:0a:dd:1f:9e:
         05:16:e4:90:b4:6e:c0:fc:a1:b1:a7:e5:4d:9a:43:c4:98:9a:
         28:a4:74:60:ce:5e:21:41:d6:4b:cc:19:c5:48:8d:fa:3d:9e:
         43:62:1d:6d:b0:fb:54:37:34:f3:ee:8d:87:28:9e:bc:b0:01:
         4f:06:36:78:83:9d:27:2a:2d:65:83:3e:8d:90:80:ed:8d:b1:
         35:51:c5:bd:27:2d:b4:80:a9:d7:19:e6:41:43:7e:c3:e6:6f:
         43:5d:23:ee:22:c9:e5:ea:76:fa:33:d3:71:e1:6a:99:5e:9c:
         78:ca:ba:ff:03:f4:db:b1:74:c3:8e:56:a9:26:c9:07:06:1a:
         bd:ab:1f:cd:4d:71:8a:60:13:ca:7b:bd:32:b9:f0:07:67:c6:
         69:f6:e4:99:ec:d8:05:d7:2d:18:f7:7a:d1:75:03:b2:5b:e1:
         68:b5:1c:f8:2b:ce:ac:a5:57:8e:63:81:77:a0:14:25:c6:25:
         ec:ce:ae:82:cf:a1:5d:a2:4e:71:83:b9:d1:e4:2b:92:db:bf:
         59:85:a9:8f:5c:c3:bc:a4:b2:c3:96:2f:54:df:0a:f9:83:4c:
         79:09:e6:34
-----BEGIN CERTIFICATE-----
MIIFRjCCBC6gAwIBAgIBAjANBgkqhkiG9w0BAQsFADCBtTELMAkGA1UEBhMCVVMx
CzAJBgNVBAgTAkNBMRUwEwYDVQQHEwxTYW5GcmFuY2lzY28xFTATBgNVBAoTDEZv
cnQtRnVuc3RvbjEdMBsGA1UECxMUTXlPcmdhbml6YXRpb25hbFVuaXQxGDAWBgNV
BAMTD0ZvcnQtRnVuc3RvbiBDQTEPMA0GA1UEKRMGc2VydmVyMSEwHwYJKoZIhvcN
AQkBFhJtZUBteWhvc3QubXlkb21haW4wHhcNMTYwMzE5MDk0NTU1WhcNMjYwMzE3
MDk0NTU1WjCBpjELMAkGA1UEBhMCVVMxCzAJBgNVBAgTAkNBMRUwEwYDVQQHEwxT
YW5GcmFuY2lzY28xFTATBgNVBAoTDEZvcnQtRnVuc3RvbjEdMBsGA1UECxMUTXlP
cmdhbml6YXRpb25hbFVuaXQxDDAKBgNVBAMTA2tpbjEMMAoGA1UEKRMDa2luMSEw
HwYJKoZIhvcNAQkBFhJtZUBteWhvc3QubXlkb21haW4wggEiMA0GCSqGSIb3DQEB
AQUAA4IBDwAwggEKAoIBAQDDNdk3IT8sPExF61MS0IvuO3pACRUQkEqqvDTyE9cW
/yqsdDQ/qBOXFSuRh6IXH3us8dIFnm+Zrqixd9nfHK579C7oXHG8NDw7NoUs/Oq5
56alOHCX9+fsaI3c1sRZbwXEN6Lsoe36hy5xrnDb855PyrUlGHx35ps5HYicKalg
oIJmc9Z1Hhpkzq9ttgsAPBcStJNH71cqKSrV1L0eS8ym6OPOiXpdvWjVs9yRCZx1
ST5ggG3So5mt+1amzUKonpW6WAWNsvBV/OLJUxcqoGfEp4Pg01dQ4VW/Ftplk8AI
1cfeiOIHz4+ArEbH4yXgSfQTw/63X5m18qJIG/Vrg+hzAgMBAAGjggFsMIIBaDAJ
BgNVHRMEAjAAMC0GCWCGSAGG+EIBDQQgFh5FYXN5LVJTQSBHZW5lcmF0ZWQgQ2Vy
dGlmaWNhdGUwHQYDVR0OBBYEFPaINYCTSE6ywEdSpO9QPOpL6z/nMIHqBgNVHSME
geIwgd+AFEvm4jeUuPNTp7bVqg3IW/NL4+1KoYG7pIG4MIG1MQswCQYDVQQGEwJV
UzELMAkGA1UECBMCQ0ExFTATBgNVBAcTDFNhbkZyYW5jaXNjbzEVMBMGA1UEChMM
Rm9ydC1GdW5zdG9uMR0wGwYDVQQLExRNeU9yZ2FuaXphdGlvbmFsVW5pdDEYMBYG
A1UEAxMPRm9ydC1GdW5zdG9uIENBMQ8wDQYDVQQpEwZzZXJ2ZXIxITAfBgkqhkiG
9w0BCQEWEm1lQG15aG9zdC5teWRvbWFpboIJAInwZQ/rlcHKMBMGA1UdJQQMMAoG
CCsGAQUFBwMCMAsGA1UdDwQEAwIHgDANBgkqhkiG9w0BAQsFAAOCAQEAIiwggpWZ
eizzw49UWuQz7FUV8P2Ss7g5Weck7T3QO9gK3R+eBRbkkLRuwPyhsaflTZpDxJia
KKR0YM5eIUHWS8wZxUiN+j2eQ2IdbbD7VDc08+6NhyievLABTwY2eIOdJyotZYM+
jZCA7Y2xNVHFvScttICp1xnmQUN+w+ZvQ10j7iLJ5ep2+jPTceFqmV6ceMq6/wP0
27F0w45WqSbJBwYavasfzU1ximATynu9MrnwB2fGafbkmezYBdctGPd60XUDslvh
aLUc+CvOrKVXjmOBd6AUJcYl7M6ugs+hXaJOcYO50eQrktu/WYWpj1zDvKSyw5Yv
VN8K+YNMeQnmNA==
-----END CERTIFICATE-----
